; Function Attrs: null_pointer_is_valid sspstrong uwtable
define internal noundef zeroext i16 @de_bssgp_bvci(ptr noundef %0, ptr noundef %1, ptr readnone captures(none) %2, i32 noundef %3, i32 %4, ptr noundef %5, i32 noundef %6) #1 {
  %8 = tail call zeroext i16 @tvb_get_ntohs(ptr noundef %0, i32 noundef %3)
  %9 = load i32, ptr @hf_bssgp_bvci, align 4
  %10 = tail call ptr @proto_tree_add_item(ptr noundef %1, i32 noundef %9, ptr noundef %0, i32 noundef %3, i32 noundef 2, i32 noundef 0)
  %.not = icmp eq ptr %5, null
  br i1 %.not, label %15, label %11

11:                                               ; preds = %7
  %12 = sext i32 %6 to i64
  %13 = zext i16 %8 to i32
  %14 = tail call i32 (ptr, i64, i32, i64, ptr, ...) @__snprintf_chk(ptr noundef nonnull %5, i64 noundef %12, i32 noundef 2, i64 noundef -1, ptr noundef nonnull @.str.435, i32 noundef %13)
  br label %15

15:                                               ; preds = %11, %7
  ret i16 2
}